target datalayout = "e-m:e-p270:32:32-p271:32:32-p272:64:64-i64:64-i128:128-f80:128-n8:16:32:64-S128"
target triple = "x86_64-pc-linux-gnu"

%struct._Node = type { %union.anon }
%union.anon = type { %struct.StrNode }
%struct.StrNode = type { %struct.NodeBase, ptr, ptr, i32, i32, [24 x i8] }
%struct.NodeBase = type { i32 }
%struct.ConsAltNode = type { %struct.NodeBase, ptr, ptr }
%struct.QtfrNode = type { %struct.NodeBase, i32, ptr, i32, i32, i32, i32, ptr, ptr, i32 }
%struct.EncloseNode = type { %struct.NodeBase, i32, i32, i32, i32, i32, ptr, i64, i64, i32, i32 }
%struct.CallNode = type { %struct.NodeBase, i32, i32, ptr, ptr, ptr, ptr }

; Function Attrs: nounwind sspstrong uwtable
define internal i32 @quantifiers_memory_node_info(ptr noundef %0) #0 {
  %2 = alloca i32, align 4
  %3 = alloca ptr, align 8
  %4 = alloca i32, align 4
  %5 = alloca i32, align 4
  %6 = alloca i32, align 4
  %7 = alloca ptr, align 8
  %8 = alloca ptr, align 8
  store ptr %0, ptr %3, align 8, !tbaa !66
  call void @llvm.lifetime.start.p0(i64 4, ptr %4) #11
  store i32 0, ptr %4, align 4, !tbaa !7
  %9 = load ptr, ptr %3, align 8, !tbaa !66
  %10 = getelementptr inbounds nuw %struct._Node, ptr %9, i32 0, i32 0
  %11 = getelementptr inbounds nuw %struct.NodeBase, ptr %10, i32 0, i32 0
  %12 = load i32, ptr %11, align 8, !tbaa !38
  switch i32 %12, label %84 [
    i32 8, label %13
    i32 9, label %13
    i32 10, label %38
    i32 5, label %53
    i32 6, label %66
    i32 4, label %83
    i32 0, label %83
    i32 2, label %83
    i32 1, label %83
    i32 3, label %83
    i32 7, label %83
  ]

13:                                               ; preds = %1, %1
  call void @llvm.lifetime.start.p0(i64 4, ptr %5) #11
  br label %14

14:                                               ; preds = %35, %13
  %15 = load ptr, ptr %3, align 8, !tbaa !66
  %16 = getelementptr inbounds nuw %struct._Node, ptr %15, i32 0, i32 0
  %17 = getelementptr inbounds nuw %struct.ConsAltNode, ptr %16, i32 0, i32 1
  %18 = load ptr, ptr %17, align 8, !tbaa !38
  %19 = call i32 @quantifiers_memory_node_info(ptr noundef %18)
  store i32 %19, ptr %5, align 4, !tbaa !7
  %20 = load i32, ptr %5, align 4, !tbaa !7
  %21 = load i32, ptr %4, align 4, !tbaa !7
  %22 = icmp sgt i32 %20, %21
  br i1 %22, label %23, label %25

23:                                               ; preds = %14
  %24 = load i32, ptr %5, align 4, !tbaa !7
  store i32 %24, ptr %4, align 4, !tbaa !7
  br label %25

25:                                               ; preds = %23, %14
  br label %26

26:                                               ; preds = %25
  %27 = load i32, ptr %5, align 4, !tbaa !7
  %28 = icmp sge i32 %27, 0
  br i1 %28, label %29, label %35

29:                                               ; preds = %26
  %30 = load ptr, ptr %3, align 8, !tbaa !66
  %31 = getelementptr inbounds nuw %struct._Node, ptr %30, i32 0, i32 0
  %32 = getelementptr inbounds nuw %struct.ConsAltNode, ptr %31, i32 0, i32 2
  %33 = load ptr, ptr %32, align 8, !tbaa !38
  store ptr %33, ptr %3, align 8, !tbaa !66
  %34 = icmp ne ptr %33, null
  br label %35

35:                                               ; preds = %29, %26
  %36 = phi i1 [ false, %26 ], [ %34, %29 ]
  br i1 %36, label %14, label %37, !llvm.loop !207

37:                                               ; preds = %35
  call void @llvm.lifetime.end.p0(i64 4, ptr %5) #11
  br label %85

38:                                               ; preds = %1
  %39 = load ptr, ptr %3, align 8, !tbaa !66
  %40 = getelementptr inbounds nuw %struct._Node, ptr %39, i32 0, i32 0
  %41 = getelementptr inbounds nuw %struct.CallNode, ptr %40, i32 0, i32 1
  %42 = load i32, ptr %41, align 4, !tbaa !38
  %43 = and i32 %42, 128
  %44 = icmp ne i32 %43, 0
  br i1 %44, label %45, label %46

45:                                               ; preds = %38
  store i32 3, ptr %2, align 4
  store i32 1, ptr %6, align 4
  br label %87

46:                                               ; preds = %38
  %47 = load ptr, ptr %3, align 8, !tbaa !66
  %48 = getelementptr inbounds nuw %struct._Node, ptr %47, i32 0, i32 0
  %49 = getelementptr inbounds nuw %struct.CallNode, ptr %48, i32 0, i32 5
  %50 = load ptr, ptr %49, align 8, !tbaa !38
  %51 = call i32 @quantifiers_memory_node_info(ptr noundef %50)
  store i32 %51, ptr %4, align 4, !tbaa !7
  br label %52

52:                                               ; preds = %46
  br label %85

53:                                               ; preds = %1
  call void @llvm.lifetime.start.p0(i64 8, ptr %7) #11
  %54 = load ptr, ptr %3, align 8, !tbaa !66
  %55 = getelementptr inbounds nuw %struct._Node, ptr %54, i32 0, i32 0
  store ptr %55, ptr %7, align 8, !tbaa !36
  %56 = load ptr, ptr %7, align 8, !tbaa !36
  %57 = getelementptr inbounds nuw %struct.QtfrNode, ptr %56, i32 0, i32 4
  %58 = load i32, ptr %57, align 4, !tbaa !125
  %59 = icmp ne i32 %58, 0
  br i1 %59, label %60, label %65

60:                                               ; preds = %53
  %61 = load ptr, ptr %7, align 8, !tbaa !36
  %62 = getelementptr inbounds nuw %struct.QtfrNode, ptr %61, i32 0, i32 2
  %63 = load ptr, ptr %62, align 8, !tbaa !122
  %64 = call i32 @quantifiers_memory_node_info(ptr noundef %63)
  store i32 %64, ptr %4, align 4, !tbaa !7
  br label %65

65:                                               ; preds = %60, %53
  call void @llvm.lifetime.end.p0(i64 8, ptr %7) #11
  br label %85

66:                                               ; preds = %1
  call void @llvm.lifetime.start.p0(i64 8, ptr %8) #11
  %67 = load ptr, ptr %3, align 8, !tbaa !66
  %68 = getelementptr inbounds nuw %struct._Node, ptr %67, i32 0, i32 0
  store ptr %68, ptr %8, align 8, !tbaa !36
  %69 = load ptr, ptr %8, align 8, !tbaa !36
  %70 = getelementptr inbounds nuw %struct.EncloseNode, ptr %69, i32 0, i32 2
  %71 = load i32, ptr %70, align 8, !tbaa !133
  switch i32 %71, label %78 [
    i32 1, label %72
    i32 2, label %73
    i32 4, label %73
    i32 8, label %73
    i32 16, label %73
  ]

72:                                               ; preds = %66
  store i32 2, ptr %2, align 4
  store i32 1, ptr %6, align 4
  br label %80

73:                                               ; preds = %66, %66, %66, %66
  %74 = load ptr, ptr %8, align 8, !tbaa !36
  %75 = getelementptr inbounds nuw %struct.EncloseNode, ptr %74, i32 0, i32 6
  %76 = load ptr, ptr %75, align 8, !tbaa !112
  %77 = call i32 @quantifiers_memory_node_info(ptr noundef %76)
  store i32 %77, ptr %4, align 4, !tbaa !7
  br label %79

78:                                               ; preds = %66
  br label %79

79:                                               ; preds = %78, %73
  store i32 0, ptr %6, align 4
  br label %80

80:                                               ; preds = %79, %72
  call void @llvm.lifetime.end.p0(i64 8, ptr %8) #11
  %81 = load i32, ptr %6, align 4
  switch i32 %81, label %87 [
    i32 0, label %82
  ]

82:                                               ; preds = %80
  br label %85

83:                                               ; preds = %1, %1, %1, %1, %1, %1
  br label %84

84:                                               ; preds = %1, %83
  br label %85

85:                                               ; preds = %84, %82, %65, %52, %37
  %86 = load i32, ptr %4, align 4, !tbaa !7
  store i32 %86, ptr %2, align 4
  store i32 1, ptr %6, align 4
  br label %87

87:                                               ; preds = %85, %80, %45
  call void @llvm.lifetime.end.p0(i64 4, ptr %4) #11
  %88 = load i32, ptr %2, align 4
  ret i32 %88
}