; Function Attrs: nofree nosync nounwind sspstrong memory(read, inaccessiblemem: none) uwtable
define internal fastcc range(i32 0, 4) i32 @quantifiers_memory_node_info(ptr noundef readonly captures(none) %0) unnamed_addr #12 {
  br label %tailrecurse

tailrecurse:                                      ; preds = %tailrecurse.backedge, %1
  %.tr = phi ptr [ %0, %1 ], [ %.tr.be, %tailrecurse.backedge ]
  %2 = load i32, ptr %.tr, align 8, !tbaa !34
  switch i32 %2, label %.critedge [
    i32 8, label %.preheader
    i32 9, label %.preheader
    i32 10, label %9
    i32 5, label %14
    i32 6, label %17
  ]

.preheader:                                       ; preds = %tailrecurse, %tailrecurse
  br label %3

3:                                                ; preds = %.preheader, %3
  %.019 = phi i32 [ %spec.select, %3 ], [ 0, %.preheader ]
  %.017 = phi ptr [ %8, %3 ], [ %.tr, %.preheader ]
  %4 = getelementptr inbounds nuw i8, ptr %.017, i64 8
  %5 = load ptr, ptr %4, align 8, !tbaa !34
  %6 = tail call fastcc i32 @quantifiers_memory_node_info(ptr noundef %5)
  %spec.select = tail call i32 @llvm.smax.i32(i32 %6, i32 %.019)
  %7 = getelementptr inbounds nuw i8, ptr %.017, i64 16
  %8 = load ptr, ptr %7, align 8, !tbaa !34
  %.not24 = icmp eq ptr %8, null
  br i1 %.not24, label %.critedge, label %3, !llvm.loop !235

9:                                                ; preds = %tailrecurse
  %10 = getelementptr inbounds nuw i8, ptr %.tr, i64 4
  %11 = load i32, ptr %10, align 4, !tbaa !34
  %12 = and i32 %11, 128
  %.not23 = icmp eq i32 %12, 0
  br i1 %.not23, label %tailrecurse.backedge, label %.critedge

tailrecurse.backedge:                             ; preds = %9, %17, %17, %17, %17, %14
  %.sink = phi i64 [ 8, %14 ], [ 24, %17 ], [ 24, %17 ], [ 24, %17 ], [ 24, %17 ], [ 32, %9 ]
  %13 = getelementptr inbounds nuw i8, ptr %.tr, i64 %.sink
  %.tr.be = load ptr, ptr %13, align 8, !tbaa !34
  br label %tailrecurse

14:                                               ; preds = %tailrecurse
  %15 = getelementptr inbounds nuw i8, ptr %.tr, i64 20
  %16 = load i32, ptr %15, align 4, !tbaa !148
  %.not = icmp eq i32 %16, 0
  br i1 %.not, label %.critedge, label %tailrecurse.backedge

17:                                               ; preds = %tailrecurse
  %18 = getelementptr inbounds nuw i8, ptr %.tr, i64 8
  %19 = load i32, ptr %18, align 8, !tbaa !152
  switch i32 %19, label %.critedge [
    i32 1, label %.critedge.loopexit41
    i32 2, label %tailrecurse.backedge
    i32 4, label %tailrecurse.backedge
    i32 8, label %tailrecurse.backedge
    i32 16, label %tailrecurse.backedge
  ]

.critedge.loopexit41:                             ; preds = %17
  br label %.critedge

.critedge:                                        ; preds = %tailrecurse, %14, %9, %3, %17, %.critedge.loopexit41
  %.0 = phi i32 [ 0, %17 ], [ %spec.select, %3 ], [ 0, %14 ], [ 0, %tailrecurse ], [ 3, %9 ], [ 2, %.critedge.loopexit41 ]
  ret i32 %.0
}